; Function Attrs: mustprogress nofree norecurse nosync nounwind willreturn memory(argmem: read) uwtable
define dso_local noundef zeroext i1 @_ZNK4llvm3vfs6Status10equivalentERKS1_(ptr nocapture noundef nonnull readonly align 8 dereferenceable(81) %0, ptr nocapture noundef nonnull readonly align 8 dereferenceable(81) %1) local_unnamed_addr #4 align 2 {
  %3 = getelementptr inbounds nuw i8, ptr %0, i64 32
  %.sroa.0.0.copyload.i = load i64, ptr %3, align 8
  %.sroa.2.0..sroa_idx.i = getelementptr inbounds i8, ptr %0, i64 40
  %.sroa.2.0.copyload.i = load i64, ptr %.sroa.2.0..sroa_idx.i, align 8
  %4 = getelementptr inbounds nuw i8, ptr %1, i64 32
  %.sroa.0.0.copyload.i2 = load i64, ptr %4, align 8
  %.sroa.2.0..sroa_idx.i3 = getelementptr inbounds i8, ptr %1, i64 40
  %.sroa.2.0.copyload.i4 = load i64, ptr %.sroa.2.0..sroa_idx.i3, align 8
  %5 = icmp eq i64 %.sroa.0.0.copyload.i, %.sroa.0.0.copyload.i2
  %6 = icmp eq i64 %.sroa.2.0.copyload.i, %.sroa.2.0.copyload.i4
  %7 = select i1 %5, i1 %6, i1 false
  ret i1 %7
}